; Function Attrs: nounwind uwtable
define hidden i32 @ssl3_hash_current_message(ptr noundef %0) local_unnamed_addr #0 {
  %2 = getelementptr inbounds nuw i8, ptr %0, i64 64
  %3 = load ptr, ptr %2, align 8, !tbaa !77
  %4 = getelementptr inbounds nuw i8, ptr %0, i64 56
  %5 = load ptr, ptr %4, align 8, !tbaa !6
  %6 = getelementptr inbounds nuw i8, ptr %5, i64 8
  %7 = load ptr, ptr %6, align 8, !tbaa !35
  %8 = ptrtoint ptr %3 to i64
  %9 = ptrtoint ptr %7 to i64
  %10 = sub i64 %8, %9
  %11 = getelementptr inbounds nuw i8, ptr %0, i64 72
  %12 = load i32, ptr %11, align 8, !tbaa !38
  %13 = sext i32 %12 to i64
  %14 = add i64 %10, %13
  %15 = tail call i32 @ssl3_update_handshake_hash(ptr noundef %0, ptr noundef %7, i64 noundef %14) #7
  ret i32 %15
}